; Function Attrs: mustprogress nounwind uwtable
define dso_local void @_ZN4Luau12BuiltinTypesD2Ev(ptr noundef nonnull align 8 dereferenceable(232) %0) unnamed_addr #12 align 2 personality ptr @__gxx_personality_v0 {
  %2 = load i8, ptr @_ZN5FFlag20DebugLuauFreezeArenaE, align 8, !tbaa !257, !range !119, !noundef !118
  %3 = getelementptr inbounds nuw i8, ptr %0, i64 8
  %4 = load i8, ptr %3, align 8, !tbaa !328, !range !119, !noundef !118
  store i8 %4, ptr @_ZN5FFlag20DebugLuauFreezeArenaE, align 8, !tbaa !257
  %5 = load ptr, ptr %0, align 8, !tbaa !327
  invoke void @_ZN4Luau8unfreezeERNS_9TypeArenaE(ptr noundef nonnull align 8 dereferenceable(88) %5)
          to label %6 unwind label %9

6:                                                ; preds = %1
  %7 = load ptr, ptr %0, align 8, !tbaa !327
  store ptr null, ptr %0, align 8, !tbaa !327
  %.not.i.i = icmp eq ptr %7, null
  br i1 %.not.i.i, label %_ZNSt10unique_ptrIN4Luau9TypeArenaESt14default_deleteIS1_EE5resetEPS1_.exit.thread, label %_ZNSt10unique_ptrIN4Luau9TypeArenaESt14default_deleteIS1_EE5resetEPS1_.exit

_ZNSt10unique_ptrIN4Luau9TypeArenaESt14default_deleteIS1_EE5resetEPS1_.exit.thread: ; preds = %6
  store i8 %2, ptr @_ZN5FFlag20DebugLuauFreezeArenaE, align 8, !tbaa !257
  br label %_ZNSt10unique_ptrIN4Luau9TypeArenaESt14default_deleteIS1_EED2Ev.exit

_ZNSt10unique_ptrIN4Luau9TypeArenaESt14default_deleteIS1_EE5resetEPS1_.exit: ; preds = %6
  tail call void @_ZNKSt14default_deleteIN4Luau9TypeArenaEEclEPS1_(ptr noundef nonnull align 8 dereferenceable(8) %0, ptr noundef nonnull %7)
  %.pr = load ptr, ptr %0, align 8, !tbaa !327
  store i8 %2, ptr @_ZN5FFlag20DebugLuauFreezeArenaE, align 8, !tbaa !257
  %.not.i = icmp eq ptr %.pr, null
  br i1 %.not.i, label %_ZNSt10unique_ptrIN4Luau9TypeArenaESt14default_deleteIS1_EED2Ev.exit, label %8

8:                                                ; preds = %_ZNSt10unique_ptrIN4Luau9TypeArenaESt14default_deleteIS1_EE5resetEPS1_.exit
  tail call void @_ZNKSt14default_deleteIN4Luau9TypeArenaEEclEPS1_(ptr noundef nonnull align 8 dereferenceable(8) %0, ptr noundef nonnull %.pr)
  br label %_ZNSt10unique_ptrIN4Luau9TypeArenaESt14default_deleteIS1_EED2Ev.exit

_ZNSt10unique_ptrIN4Luau9TypeArenaESt14default_deleteIS1_EED2Ev.exit: ; preds = %_ZNSt10unique_ptrIN4Luau9TypeArenaESt14default_deleteIS1_EE5resetEPS1_.exit.thread, %_ZNSt10unique_ptrIN4Luau9TypeArenaESt14default_deleteIS1_EE5resetEPS1_.exit, %8
  store ptr null, ptr %0, align 8, !tbaa !327
  ret void

9:                                                ; preds = %1
  %10 = landingpad { ptr, i32 }
          catch ptr null
  %11 = extractvalue { ptr, i32 } %10, 0
  tail call void @__clang_call_terminate(ptr %11) #36
  unreachable
}